(lp0
I-819
aI-816
aI-813
aI-810
aI-807
aI-804
aI-801
aI-798
aI-795
aI-792
aI-789
aI-786
aI-783
aI-780
aI-777
aI-774
aI-771
aI-768
aI-765
aI-762
aI-759
aI-756
aI-753
aI-750
aI-747
aI-744
aI-741
aI-738
aI-735
aI-732
aI-729
aI-726
aI-723
aI-720
aI-717
aI-714
aI-711
aI-708
aI-705
aI-702
aI-699
aI-696
aI-693
aI-690
aI-687
aI-684
aI-681
aI-678
aI-675
aI-672
aI-669
aI-666
aI-663
aI-660
aI-657
aI-654
aI-651
aI-648
aI-645
aI-642
aI-639
aI-636
aI-633
aI-630
aI-627
aI-624
aI-621
aI-618
aI-615
aI-612
aI-609
aI-606
aI-603
aI-600
aI-597
aI-594
aI-591
aI-588
aI-585
aI-582
aI-579
aI-576
aI-573
aI-570
aI-567
aI-564
aI-561
aI-558
aI-555
aI-552
aI-549
aI-546
aI-543
aI-540
aI-537
aI-534
aI-531
aI-528
aI-525
aI-522
aI-519
aI-516
aI-513
aI-510
aI-507
aI-504
aI-501
aI-498
aI-495
aI-492
aI-489
aI-486
aI-483
aI-480
aI-477
aI-474
aI-471
aI-468
aI-465
aI-462
aI-459
aI-456
aI-453
aI-450
aI-447
aI-444
aI-441
aI-438
aI-435
aI-432
aI-429
aI-426
aI-423
aI-420
aI-417
aI-414
aI-411
aI-408
aI-405
aI-402
aI-399
aI-396
aI-393
aI-390
aI-387
aI-384
aI-381
aI-378
aI-375
aI-372
aI-369
aI-366
aI-363
aI-360
aI-357
aI-354
aI-351
aI-348
aI-345
aI-342
aI-339
aI-336
aI-333
aI-330
aI-327
aI-324
aI-321
aI-318
aI-315
aI-312
aI-309
aI-306
aI-303
aI-300
aI-297
aI-294
aI-291
aI-288
aI-285
aI-282
aI-279
aI-276
aI-273
aI-270
aI-267
aI-264
aI-261
aI-258
aI-255
aI-252
aI-249
aI-246
aI-243
aI-240
aI-237
aI-234
aI-231
aI-228
aI-225
aI-222
aI-219
aI-216
aI-213
aI-210
aI-207
aI-204
aI-201
aI-198
aI-195
aI-192
aI-189
aI-186
aI-183
aI-180
aI-177
aI-174
aI-171
aI-168
aI-165
aI-162
aI-159
aI-156
aI-153
aI-150
aI-147
aI-144
aI-141
aI-138
aI-135
aI-132
aI-129
aI-126
aI-123
aI-120
aI-117
aI-114
aI-111
aI-108
aI-105
aI-102
aI-99
aI-96
aI-93
aI-90
aI-87
aI-84
aI-81
aI-78
aI-75
aI-72
aI-69
aI-66
aI-63
aI-60
aI-57
aI-54
aI-51
aI-48
aI-45
aI-42
aI-39
aI-36
aI-33
aI-30
aI-27
aI-24
aI-21
aI-18
aI-15
aI-12
aI-9
aI-6
aI-3
aI0
aI3
aI6
aI9
aI12
aI15
aI18
aI21
aI24
aI27
aI30
aI33
aI36
aI39
aI42
aI45
aI48
aI51
aI54
aI57
aI60
aI63
aI66
aI69
aI72
aI75
aI78
aI81
aI84
aI87
aI90
aI93
aI96
aI99
aI102
aI105
aI108
aI111
aI114
aI117
aI120
aI123
aI126
aI129
aI132
aI135
aI138
aI141
aI144
aI147
aI150
aI153
aI156
aI159
aI162
aI165
aI168
aI171
aI174
aI177
aI180
aI183
aI186
aI189
aI192
aI195
aI198
aI201
aI204
aI207
aI210
aI213
aI216
aI219
aI222
aI225
aI228
aI231
aI234
aI237
aI240
aI243
aI246
aI249
aI252
aI255
aI258
aI261
aI264
aI267
aI270
aI273
aI276
aI279
aI282
aI285
aI288
aI291
aI294
aI297
aI300
aI303
aI306
aI309
aI312
aI315
aI318
aI321
aI324
aI327
aI330
aI333
aI336
aI339
aI342
aI345
aI348
aI351
aI354
aI357
aI360
aI363
aI366
aI369
aI372
aI375
aI378
aI381
aI384
aI387
aI390
aI393
aI396
aI399
aI402
aI405
aI408
aI411
aI414
aI417
aI420
aI423
aI426
aI429
aI432
aI435
aI438
aI441
aI444
aI447
aI450
aI453
aI456
aI459
aI462
aI465
aI468
aI471
aI474
aI477
aI480
aI483
aI486
aI489
aI492
aI495
aI498
aI501
aI504
aI507
aI510
aI513
aI516
aI519
aI522
aI525
aI528
aI531
aI534
aI537
aI540
aI543
aI546
aI549
aI552
aI555
aI558
aI561
aI564
aI567
aI570
aI573
aI576
aI579
aI582
aI585
aI588
aI591
aI594
aI597
aI600
aI603
aI606
aI609
aI612
aI615
aI618
aI621
aI624
aI627
aI630
aI633
aI636
aI639
aI642
aI645
aI648
aI651
aI654
aI657
aI660
aI663
aI666
aI669
aI672
aI675
aI678
aI681
aI684
aI687
aI690
aI693
aI696
aI699
aI702
aI705
aI708
aI711
aI714
aI717
aI720
aI723
aI726
aI729
aI732
aI735
aI738
aI741
aI744
aI747
aI750
aI753
aI756
aI759
aI762
aI765
aI768
aI771
aI774
aI777
aI780
aI783
aI786
aI789
aI792
aI795
aI798
aI801
aI804
aI807
aI810
aI813
aI816
a.